; ModuleID = 'source-C-CXX/22/280.c'
source_filename = "source-C-CXX/22/280.c"
target datalayout = "e-m:e-p270:32:32-p271:32:32-p272:64:64-i64:64-f80:128-n8:16:32:64-S128"
target triple = "x86_64-pc-linux-gnu"

@.str = private unnamed_addr constant [3 x i8] c"%s\00", align 1
@.str.1 = private unnamed_addr constant [4 x i8] c" %s\00", align 1

; Function Attrs: nounwind sspstrong uwtable
define dso_local i32 @main() local_unnamed_addr #0 {
  %1 = alloca [100 x i8], align 16
  %2 = alloca [20 x [20 x i8]], align 16
  %3 = getelementptr inbounds [100 x i8], [100 x i8]* %1, i64 0, i64 0
  call void @llvm.lifetime.start.p0i8(i64 100, i8* nonnull %3) #5
  %4 = getelementptr inbounds [20 x [20 x i8]], [20 x [20 x i8]]* %2, i64 0, i64 0, i64 0
  call void @llvm.lifetime.start.p0i8(i64 400, i8* nonnull %4) #5
  %5 = call i32 (i8*, ...) bitcast (i32 (...)* @gets to i32 (i8*, ...)*)(i8* nonnull %3) #5
  br label %6

6:                                                ; preds = %33, %0
  %7 = phi i64 [ %35, %33 ], [ 1, %0 ]
  %8 = phi i32 [ %34, %33 ], [ 1, %0 ]
  %9 = add nsw i64 %7, -1
  br label %10

10:                                               ; preds = %31, %6
  %11 = phi i64 [ %32, %31 ], [ 1, %6 ]
  %12 = phi i32 [ %26, %31 ], [ %8, %6 ]
  %13 = add nsw i32 %12, -1
  %14 = sext i32 %13 to i64
  %15 = getelementptr inbounds [100 x i8], [100 x i8]* %1, i64 0, i64 %14
  %16 = load i8, i8* %15, align 1, !tbaa !5
  switch i8 %16, label %17 [
    i8 32, label %24
    i8 0, label %24
  ]

17:                                               ; preds = %10
  %18 = add nsw i64 %11, -1
  %19 = getelementptr inbounds [20 x [20 x i8]], [20 x [20 x i8]]* %2, i64 0, i64 %9, i64 %18
  store i8 %16, i8* %19, align 1, !tbaa !5
  %20 = add nsw i32 %12, 1
  %21 = sext i32 %12 to i64
  %22 = getelementptr inbounds [100 x i8], [100 x i8]* %1, i64 0, i64 %21
  %23 = load i8, i8* %22, align 1, !tbaa !5
  br label %24

24:                                               ; preds = %10, %10, %17
  %25 = phi i8 [ %23, %17 ], [ %16, %10 ], [ %16, %10 ]
  %26 = phi i32 [ %20, %17 ], [ %12, %10 ], [ %12, %10 ]
  switch i8 %25, label %31 [
    i8 32, label %27
    i8 0, label %27
  ]

27:                                               ; preds = %24, %24
  %28 = and i64 %11, 4294967295
  %29 = getelementptr inbounds [20 x [20 x i8]], [20 x [20 x i8]]* %2, i64 0, i64 %9, i64 %28
  store i8 0, i8* %29, align 1, !tbaa !5
  %30 = icmp eq i8 %25, 0
  br i1 %30, label %36, label %33

31:                                               ; preds = %24
  %32 = add nuw i64 %11, 1
  br label %10

33:                                               ; preds = %27
  %34 = add nsw i32 %26, 1
  %35 = add nuw i64 %7, 1
  br label %6

36:                                               ; preds = %27
  %37 = trunc i64 %7 to i32
  %38 = getelementptr inbounds [20 x [20 x i8]], [20 x [20 x i8]]* %2, i64 0, i64 %9, i64 0
  %39 = call i32 (i8*, ...) @printf(i8* nonnull dereferenceable(1) getelementptr inbounds ([3 x i8], [3 x i8]* @.str, i64 0, i64 0), i8* nonnull %38)
  %40 = icmp ugt i32 %37, 1
  br i1 %40, label %41, label %51

41:                                               ; preds = %36
  %42 = add i64 %7, 4294967294
  %43 = and i64 %42, 4294967295
  br label %44

44:                                               ; preds = %41, %44
  %45 = phi i64 [ %43, %41 ], [ %50, %44 ]
  %46 = getelementptr inbounds [20 x [20 x i8]], [20 x [20 x i8]]* %2, i64 0, i64 %45, i64 0
  %47 = call i32 (i8*, ...) @printf(i8* nonnull dereferenceable(1) getelementptr inbounds ([4 x i8], [4 x i8]* @.str.1, i64 0, i64 0), i8* nonnull %46)
  %48 = trunc i64 %45 to i32
  %49 = icmp sgt i32 %48, 0
  %50 = add nsw i64 %45, -1
  br i1 %49, label %44, label %51, !llvm.loop !8

51:                                               ; preds = %44, %36
  %52 = call i32 @putchar(i32 10)
  call void @llvm.lifetime.end.p0i8(i64 400, i8* nonnull %4) #5
  call void @llvm.lifetime.end.p0i8(i64 100, i8* nonnull %3) #5
  ret i32 0
}

; Function Attrs: argmemonly mustprogress nofree nosync nounwind willreturn
declare void @llvm.lifetime.start.p0i8(i64 immarg, i8* nocapture) #1

declare i32 @gets(...) local_unnamed_addr #2

; Function Attrs: nofree nounwind
declare noundef i32 @printf(i8* nocapture noundef readonly, ...) local_unnamed_addr #3

; Function Attrs: argmemonly mustprogress nofree nosync nounwind willreturn
declare void @llvm.lifetime.end.p0i8(i64 immarg, i8* nocapture) #1

; Function Attrs: nofree nounwind
declare noundef i32 @putchar(i32 noundef) local_unnamed_addr #4


!llvm.module.flags = !{!0, !1, !2, !3}
!llvm.ident = !{!4}

!0 = !{i32 1, !"wchar_size", i32 4}
!1 = !{i32 7, !"PIC Level", i32 2}
!2 = !{i32 7, !"PIE Level", i32 2}
!3 = !{i32 7, !"uwtable", i32 1}
!4 = !{!"clang version 13.0.0"}
!5 = !{!6, !6, i64 0}
!6 = !{!"omnipotent char", !7, i64 0}
!7 = !{!"Simple C/C++ TBAA"}
!8 = distinct !{!8, !9}
!9 = !{!"llvm.loop.mustprogress"}
